(lp0
(I3279
I12479
tp1
a(I3279
I12991
tp2
a(I3279
I13503
tp3
a(I3279
I14015
tp4
a(I3279
I14527
tp5
a(I3279
I15039
tp6
a(I3279
I15551
tp7
a(I3279
I16063
tp8
a(I3279
I16575
tp9
a(I3279
I17087
tp10
a(I3279
I17599
tp11
a(I3279
I18111
tp12
a(I3279
I18623
tp13
a(I3279
I19135
tp14
a(I3279
I19647
tp15
a(I3279
I20159
tp16
a(I3279
I20671
tp17
a(I3791
I12479
tp18
a(I3791
I12991
tp19
a(I3791
I13503
tp20
a(I3791
I14015
tp21
a(I3791
I14527
tp22
a(I3791
I15039
tp23
a(I3791
I15551
tp24
a(I3791
I16063
tp25
a(I3791
I16575
tp26
a(I3791
I17087
tp27
a(I3791
I17599
tp28
a(I3791
I18111
tp29
a(I3791
I18623
tp30
a(I3791
I19135
tp31
a(I3791
I19647
tp32
a(I3791
I20159
tp33
a(I3791
I20671
tp34
a(I4303
I12479
tp35
a(I4303
I12991
tp36
a(I4303
I13503
tp37
a(I4303
I14015
tp38
a(I4303
I14527
tp39
a(I4303
I15039
tp40
a(I4303
I15551
tp41
a(I4303
I16063
tp42
a(I4303
I16575
tp43
a(I4303
I17087
tp44
a(I4303
I17599
tp45
a(I4303
I18111
tp46
a(I4303
I18623
tp47
a(I4303
I19135
tp48
a(I4303
I19647
tp49
a(I4303
I20159
tp50
a(I4303
I20671
tp51
a(I4815
I12479
tp52
a(I4815
I12991
tp53
a(I4815
I13503
tp54
a(I4815
I14015
tp55
a(I4815
I14527
tp56
a(I4815
I15039
tp57
a(I4815
I15551
tp58
a(I4815
I16063
tp59
a(I4815
I16575
tp60
a(I4815
I17087
tp61
a(I4815
I17599
tp62
a(I4815
I18111
tp63
a(I4815
I18623
tp64
a(I4815
I19135
tp65
a(I4815
I19647
tp66
a(I4815
I20159
tp67
a(I4815
I20671
tp68
a(I5327
I12479
tp69
a(I5327
I12991
tp70
a(I5327
I13503
tp71
a(I5327
I14015
tp72
a(I5327
I14527
tp73
a(I5327
I15039
tp74
a(I5327
I15551
tp75
a(I5327
I16063
tp76
a(I5327
I16575
tp77
a(I5327
I17087
tp78
a(I5327
I17599
tp79
a(I5327
I18111
tp80
a(I5327
I18623
tp81
a(I5327
I19135
tp82
a(I5327
I19647
tp83
a(I5327
I20159
tp84
a(I5327
I20671
tp85
a(I5839
I12479
tp86
a(I5839
I12991
tp87
a(I5839
I13503
tp88
a(I5839
I14015
tp89
a(I5839
I14527
tp90
a(I5839
I15039
tp91
a(I5839
I15551
tp92
a(I5839
I16063
tp93
a(I5839
I16575
tp94
a(I5839
I17087
tp95
a(I5839
I17599
tp96
a(I5839
I18111
tp97
a(I5839
I18623
tp98
a(I5839
I19135
tp99
a(I5839
I19647
tp100
a(I5839
I20159
tp101
a(I5839
I20671
tp102
a(I6351
I12479
tp103
a(I6351
I12991
tp104
a(I6351
I13503
tp105
a(I6351
I14015
tp106
a(I6351
I14527
tp107
a(I6351
I15039
tp108
a(I6351
I15551
tp109
a(I6351
I16063
tp110
a(I6351
I16575
tp111
a(I6351
I17087
tp112
a(I6351
I17599
tp113
a(I6351
I18111
tp114
a(I6351
I18623
tp115
a(I6351
I19135
tp116
a(I6351
I19647
tp117
a(I6351
I20159
tp118
a(I6351
I20671
tp119
a(I6863
I12479
tp120
a(I6863
I12991
tp121
a(I6863
I13503
tp122
a(I6863
I14015
tp123
a(I6863
I14527
tp124
a(I6863
I15039
tp125
a(I6863
I15551
tp126
a(I6863
I16063
tp127
a(I6863
I16575
tp128
a(I6863
I17087
tp129
a(I6863
I17599
tp130
a(I6863
I18111
tp131
a(I6863
I18623
tp132
a(I6863
I19135
tp133
a(I6863
I19647
tp134
a(I6863
I20159
tp135
a(I6863
I20671
tp136
a(I7375
I12479
tp137
a(I7375
I12991
tp138
a(I7375
I13503
tp139
a(I7375
I14015
tp140
a(I7375
I14527
tp141
a(I7375
I15039
tp142
a(I7375
I15551
tp143
a(I7375
I16063
tp144
a(I7375
I16575
tp145
a(I7375
I17087
tp146
a(I7375
I17599
tp147
a(I7375
I18111
tp148
a(I7375
I18623
tp149
a(I7375
I19135
tp150
a(I7375
I19647
tp151
a(I7375
I20159
tp152
a(I7375
I20671
tp153
a(I7887
I12479
tp154
a(I7887
I12991
tp155
a(I7887
I13503
tp156
a(I7887
I14015
tp157
a(I7887
I14527
tp158
a(I7887
I15039
tp159
a(I7887
I15551
tp160
a(I7887
I16063
tp161
a(I7887
I16575
tp162
a(I7887
I17087
tp163
a(I7887
I17599
tp164
a(I7887
I18111
tp165
a(I7887
I18623
tp166
a(I7887
I19135
tp167
a(I7887
I19647
tp168
a(I7887
I20159
tp169
a(I7887
I20671
tp170
a(I8399
I12479
tp171
a(I8399
I12991
tp172
a(I8399
I13503
tp173
a(I8399
I14015
tp174
a(I8399
I14527
tp175
a(I8399
I15039
tp176
a(I8399
I15551
tp177
a(I8399
I16063
tp178
a(I8399
I16575
tp179
a(I8399
I17087
tp180
a(I8399
I17599
tp181
a(I8399
I18111
tp182
a(I8399
I18623
tp183
a(I8399
I19135
tp184
a(I8399
I19647
tp185
a(I8399
I20159
tp186
a(I8399
I20671
tp187
a(I8911
I12479
tp188
a(I8911
I12991
tp189
a(I8911
I13503
tp190
a(I8911
I14015
tp191
a(I8911
I14527
tp192
a(I8911
I15039
tp193
a(I8911
I15551
tp194
a(I8911
I16063
tp195
a(I8911
I16575
tp196
a(I8911
I17087
tp197
a(I8911
I17599
tp198
a(I8911
I18111
tp199
a(I8911
I18623
tp200
a(I8911
I19135
tp201
a(I8911
I19647
tp202
a(I8911
I20159
tp203
a(I8911
I20671
tp204
a(I9423
I12479
tp205
a(I9423
I12991
tp206
a(I9423
I13503
tp207
a(I9423
I14015
tp208
a(I9423
I14527
tp209
a(I9423
I15039
tp210
a(I9423
I15551
tp211
a(I9423
I16063
tp212
a(I9423
I16575
tp213
a(I9423
I17087
tp214
a(I9423
I17599
tp215
a(I9423
I18111
tp216
a(I9423
I18623
tp217
a(I9423
I19135
tp218
a(I9423
I19647
tp219
a(I9423
I20159
tp220
a(I9423
I20671
tp221
a(I9935
I12479
tp222
a(I9935
I12991
tp223
a(I9935
I13503
tp224
a(I9935
I14015
tp225
a(I9935
I14527
tp226
a(I9935
I15039
tp227
a(I9935
I15551
tp228
a(I9935
I16063
tp229
a(I9935
I16575
tp230
a(I9935
I17087
tp231
a(I9935
I17599
tp232
a(I9935
I18111
tp233
a(I9935
I18623
tp234
a(I9935
I19135
tp235
a(I9935
I19647
tp236
a(I9935
I20159
tp237
a(I9935
I20671
tp238
a(I10447
I12479
tp239
a(I10447
I12991
tp240
a(I10447
I13503
tp241
a(I10447
I14015
tp242
a(I10447
I14527
tp243
a(I10447
I15039
tp244
a(I10447
I15551
tp245
a(I10447
I16063
tp246
a(I10447
I16575
tp247
a(I10447
I17087
tp248
a(I10447
I17599
tp249
a(I10447
I18111
tp250
a(I10447
I18623
tp251
a(I10447
I19135
tp252
a(I10447
I19647
tp253
a(I10447
I20159
tp254
a(I10447
I20671
tp255
a(I10959
I12479
tp256
a(I10959
I12991
tp257
a(I10959
I13503
tp258
a(I10959
I14015
tp259
a(I10959
I14527
tp260
a(I10959
I15039
tp261
a(I10959
I15551
tp262
a(I10959
I16063
tp263
a(I10959
I16575
tp264
a(I10959
I17087
tp265
a(I10959
I17599
tp266
a(I10959
I18111
tp267
a(I10959
I18623
tp268
a(I10959
I19135
tp269
a(I10959
I19647
tp270
a(I10959
I20159
tp271
a(I10959
I20671
tp272
a(I11471
I12479
tp273
a(I11471
I12991
tp274
a(I11471
I13503
tp275
a(I11471
I14015
tp276
a(I11471
I14527
tp277
a(I11471
I15039
tp278
a(I11471
I15551
tp279
a(I11471
I16063
tp280
a(I11471
I16575
tp281
a(I11471
I17087
tp282
a(I11471
I17599
tp283
a(I11471
I18111
tp284
a(I11471
I18623
tp285
a(I11471
I19135
tp286
a(I11471
I19647
tp287
a(I11471
I20159
tp288
a(I11471
I20671
tp289
a(I11983
I12479
tp290
a(I11983
I12991
tp291
a(I11983
I13503
tp292
a(I11983
I14015
tp293
a(I11983
I14527
tp294
a(I11983
I15039
tp295
a(I11983
I15551
tp296
a(I11983
I16063
tp297
a(I11983
I16575
tp298
a(I11983
I17087
tp299
a(I11983
I17599
tp300
a(I11983
I18111
tp301
a(I11983
I18623
tp302
a(I11983
I19135
tp303
a(I11983
I19647
tp304
a(I11983
I20159
tp305
a(I11983
I20671
tp306
a(I12495
I12479
tp307
a(I12495
I12991
tp308
a(I12495
I13503
tp309
a(I12495
I14015
tp310
a(I12495
I14527
tp311
a(I12495
I15039
tp312
a(I12495
I15551
tp313
a(I12495
I16063
tp314
a(I12495
I16575
tp315
a(I12495
I17087
tp316
a(I12495
I17599
tp317
a(I12495
I18111
tp318
a(I12495
I18623
tp319
a(I12495
I19135
tp320
a(I12495
I19647
tp321
a(I12495
I20159
tp322
a(I12495
I20671
tp323
a(I13007
I12479
tp324
a(I13007
I12991
tp325
a(I13007
I13503
tp326
a(I13007
I14015
tp327
a(I13007
I14527
tp328
a(I13007
I15039
tp329
a(I13007
I15551
tp330
a(I13007
I16063
tp331
a(I13007
I16575
tp332
a(I13007
I17087
tp333
a(I13007
I17599
tp334
a(I13007
I18111
tp335
a(I13007
I18623
tp336
a(I13007
I19135
tp337
a(I13007
I19647
tp338
a(I13007
I20159
tp339
a(I13007
I20671
tp340
a(I13519
I12479
tp341
a(I13519
I12991
tp342
a(I13519
I13503
tp343
a(I13519
I14015
tp344
a(I13519
I14527
tp345
a(I13519
I15039
tp346
a(I13519
I15551
tp347
a(I13519
I16063
tp348
a(I13519
I16575
tp349
a(I13519
I17087
tp350
a(I13519
I17599
tp351
a(I13519
I18111
tp352
a(I13519
I18623
tp353
a(I13519
I19135
tp354
a(I13519
I19647
tp355
a(I13519
I20159
tp356
a(I13519
I20671
tp357
a(I14031
I12479
tp358
a(I14031
I12991
tp359
a(I14031
I13503
tp360
a(I14031
I14015
tp361
a(I14031
I14527
tp362
a(I14031
I15039
tp363
a(I14031
I15551
tp364
a(I14031
I16063
tp365
a(I14031
I16575
tp366
a(I14031
I17087
tp367
a(I14031
I17599
tp368
a(I14031
I18111
tp369
a(I14031
I18623
tp370
a(I14031
I19135
tp371
a(I14031
I19647
tp372
a(I14031
I20159
tp373
a(I14031
I20671
tp374
a(I14543
I12479
tp375
a(I14543
I12991
tp376
a(I14543
I13503
tp377
a(I14543
I14015
tp378
a(I14543
I14527
tp379
a(I14543
I15039
tp380
a(I14543
I15551
tp381
a(I14543
I16063
tp382
a(I14543
I16575
tp383
a(I14543
I17087
tp384
a(I14543
I17599
tp385
a(I14543
I18111
tp386
a(I14543
I18623
tp387
a(I14543
I19135
tp388
a(I14543
I19647
tp389
a(I14543
I20159
tp390
a(I14543
I20671
tp391
a(I15055
I12479
tp392
a(I15055
I12991
tp393
a(I15055
I13503
tp394
a(I15055
I14015
tp395
a(I15055
I14527
tp396
a(I15055
I15039
tp397
a(I15055
I15551
tp398
a(I15055
I16063
tp399
a(I15055
I16575
tp400
a(I15055
I17087
tp401
a(I15055
I17599
tp402
a(I15055
I18111
tp403
a(I15055
I18623
tp404
a(I15055
I19135
tp405
a(I15055
I19647
tp406
a(I15055
I20159
tp407
a(I15055
I20671
tp408
a.